target datalayout = "e-m:e-p270:32:32-p271:32:32-p272:64:64-i64:64-i128:128-f80:128-n8:16:32:64-S128"
target triple = "x86_64-pc-linux-gnu"

%struct.avw_dbase = type { i32, ptr, i32, i32, ptr }
%struct.FormData_pg_database = type { i32, %struct.nameData, i32, i32, i8, i8, i8, i8, i32, i32, i32, i32 }
%struct.nameData = type { [64 x i8] }
%struct.RelationData = type { %struct.RelFileLocator, ptr, i32, i32, i8, i8, i8, i8, i8, i32, i32, i32, i32, ptr, ptr, i32, %struct.LockInfoData, ptr, ptr, ptr, ptr, ptr, i8, ptr, ptr, ptr, ptr, ptr, ptr, i32, ptr, i8, ptr, ptr, i32, i8, i32, ptr, i8, ptr, ptr, ptr, ptr, ptr, ptr, ptr, i32, ptr, ptr, ptr, ptr, ptr, ptr, ptr, ptr, ptr, ptr, ptr, ptr, ptr, ptr, ptr, ptr, ptr, ptr, ptr, i32, i8, ptr }
%struct.RelFileLocator = type { i32, i32, i32 }
%struct.LockInfoData = type { %struct.LockRelId }
%struct.LockRelId = type { i32, i32 }
%struct.HeapTupleData = type { i32, %struct.ItemPointerData, i32, ptr }
%struct.ItemPointerData = type { %struct.BlockIdData, i16 }
%struct.BlockIdData = type { i16, i16 }
%struct.HeapTupleHeaderData = type { %union.anon, %struct.ItemPointerData, i16, i16, i8, [0 x i8] }
%union.anon = type { %struct.HeapTupleFields }
%struct.HeapTupleFields = type { i32, i32, %union.anon.0 }
%union.anon.0 = type { i32 }
%struct.TableScanDescData = type { ptr, ptr, i32, ptr, %union.anon.1, i32, ptr }
%union.anon.1 = type { %struct.TBMIterator }
%struct.TBMIterator = type { i8, %union.anon.2 }
%union.anon.2 = type { ptr }
%struct.TableAmRoutine = type { i32, ptr, ptr, ptr, ptr, ptr, ptr, ptr, ptr, ptr, ptr, ptr, ptr, ptr, ptr, ptr, ptr, ptr, ptr, ptr, ptr, ptr, ptr, ptr, ptr, ptr, ptr, ptr, ptr, ptr, ptr, ptr, ptr, ptr, ptr, ptr, ptr, ptr, ptr, ptr, ptr, ptr, ptr, ptr, ptr, ptr }

@.str.1 = private unnamed_addr constant [13 x i8] c"autovacuum.c\00", align 1
@CurrentMemoryContext = external global ptr, align 8
@.str.32 = private unnamed_addr constant [43 x i8] c"autovacuum: skipping invalid database \22%s\22\00", align 1
@__func__.get_database_list = private unnamed_addr constant [18 x i8] c"get_database_list\00", align 1

; Function Attrs: inlinehint nounwind uwtable
define internal void @table_endscan(ptr noundef %0) #6 {
  %2 = alloca ptr, align 8
  store ptr %0, ptr %2, align 8
  %3 = load ptr, ptr %2, align 8
  %4 = getelementptr inbounds nuw %struct.TableScanDescData, ptr %3, i32 0, i32 0
  %5 = load ptr, ptr %4, align 8
  %6 = getelementptr inbounds nuw %struct.RelationData, ptr %5, i32 0, i32 47
  %7 = load ptr, ptr %6, align 8
  %8 = getelementptr inbounds nuw %struct.TableAmRoutine, ptr %7, i32 0, i32 3
  %9 = load ptr, ptr %8, align 8
  %10 = load ptr, ptr %2, align 8
  call void %9(ptr noundef %10)
  ret void
}

; Function Attrs: inlinehint nounwind uwtable
define internal ptr @MemoryContextSwitchTo(ptr noundef %0) #6 {
  %2 = alloca ptr, align 8
  %3 = alloca ptr, align 8
  store ptr %0, ptr %2, align 8
  call void @llvm.lifetime.start.p0(i64 8, ptr %3) #14
  %4 = load ptr, ptr @CurrentMemoryContext, align 8
  store ptr %4, ptr %3, align 8
  %5 = load ptr, ptr %2, align 8
  store ptr %5, ptr @CurrentMemoryContext, align 8
  %6 = load ptr, ptr %3, align 8
  call void @llvm.lifetime.end.p0(i64 8, ptr %3) #14
  ret ptr %6
}

; Function Attrs: inlinehint nounwind uwtable
define internal ptr @GETSTRUCT(ptr noundef %0) #6 {
  %2 = alloca ptr, align 8
  store ptr %0, ptr %2, align 8
  %3 = load ptr, ptr %2, align 8
  %4 = getelementptr inbounds nuw %struct.HeapTupleData, ptr %3, i32 0, i32 3
  %5 = load ptr, ptr %4, align 8
  %6 = load ptr, ptr %2, align 8
  %7 = getelementptr inbounds nuw %struct.HeapTupleData, ptr %6, i32 0, i32 3
  %8 = load ptr, ptr %7, align 8
  %9 = getelementptr inbounds nuw %struct.HeapTupleHeaderData, ptr %8, i32 0, i32 4
  %10 = load i8, ptr %9, align 2
  %11 = zext i8 %10 to i32
  %12 = sext i32 %11 to i64
  %13 = getelementptr inbounds i8, ptr %5, i64 %12
  ret ptr %13
}

; Function Attrs: nounwind uwtable
define internal ptr @get_database_list() #4 {
  %1 = alloca ptr, align 8
  %2 = alloca ptr, align 8
  %3 = alloca ptr, align 8
  %4 = alloca ptr, align 8
  %5 = alloca ptr, align 8
  %6 = alloca ptr, align 8
  %7 = alloca ptr, align 8
  %8 = alloca ptr, align 8
  %9 = alloca i32, align 4
  call void @llvm.lifetime.start.p0(i64 8, ptr %1) #14
  store ptr null, ptr %1, align 8
  call void @llvm.lifetime.start.p0(i64 8, ptr %2) #14
  call void @llvm.lifetime.start.p0(i64 8, ptr %3) #14
  call void @llvm.lifetime.start.p0(i64 8, ptr %4) #14
  call void @llvm.lifetime.start.p0(i64 8, ptr %5) #14
  %10 = load ptr, ptr @CurrentMemoryContext, align 8
  store ptr %10, ptr %5, align 8
  call void @StartTransactionCommand()
  %11 = call ptr @table_open(i32 noundef 1262, i32 noundef 1)
  store ptr %11, ptr %2, align 8
  %12 = load ptr, ptr %2, align 8
  %13 = call ptr @table_beginscan_catalog(ptr noundef %12, i32 noundef 0, ptr noundef null)
  store ptr %13, ptr %3, align 8
  br label %14

14:                                               ; preds = %73, %71, %0
  %15 = load ptr, ptr %3, align 8
  %16 = call ptr @heap_getnext(ptr noundef %15, i32 noundef 1)
  store ptr %16, ptr %4, align 8
  %17 = icmp ne ptr %16, null
  br i1 %17, label %18, label %74

18:                                               ; preds = %14
  call void @llvm.lifetime.start.p0(i64 8, ptr %6) #14
  %19 = load ptr, ptr %4, align 8
  %20 = call ptr @GETSTRUCT(ptr noundef %19)
  store ptr %20, ptr %6, align 8
  call void @llvm.lifetime.start.p0(i64 8, ptr %7) #14
  call void @llvm.lifetime.start.p0(i64 8, ptr %8) #14
  %21 = load ptr, ptr %6, align 8
  %22 = call zeroext i1 @database_is_invalid_form(ptr noundef %21)
  br i1 %22, label %23, label %38

23:                                               ; preds = %18
  br label %24

24:                                               ; preds = %23
  br i1 false, label %25, label %27

25:                                               ; preds = %24
  %26 = call zeroext i1 @errstart_cold(i32 noundef 13, ptr noundef null) #15
  br i1 %26, label %29, label %35

27:                                               ; preds = %24
  %28 = call zeroext i1 @errstart(i32 noundef 13, ptr noundef null)
  br i1 %28, label %29, label %35

29:                                               ; preds = %27, %25
  %30 = load ptr, ptr %6, align 8
  %31 = getelementptr inbounds nuw %struct.FormData_pg_database, ptr %30, i32 0, i32 1
  %32 = getelementptr inbounds nuw %struct.nameData, ptr %31, i32 0, i32 0
  %33 = getelementptr inbounds [64 x i8], ptr %32, i64 0, i64 0
  %34 = call i32 (ptr, ...) @errmsg_internal(ptr noundef @.str.32, ptr noundef %33)
  call void @errfinish(ptr noundef @.str.1, i32 noundef 1840, ptr noundef @__func__.get_database_list)
  br label %35

35:                                               ; preds = %29, %27, %25
  br label %36

36:                                               ; preds = %35
  br label %37

37:                                               ; preds = %36
  store i32 2, ptr %9, align 4
  br label %71, !llvm.loop !24

38:                                               ; preds = %18
  %39 = load ptr, ptr %5, align 8
  %40 = call ptr @MemoryContextSwitchTo(ptr noundef %39)
  store ptr %40, ptr %8, align 8
  %41 = call ptr @palloc(i64 noundef 32)
  store ptr %41, ptr %7, align 8
  %42 = load ptr, ptr %6, align 8
  %43 = getelementptr inbounds nuw %struct.FormData_pg_database, ptr %42, i32 0, i32 0
  %44 = load i32, ptr %43, align 4
  %45 = load ptr, ptr %7, align 8
  %46 = getelementptr inbounds nuw %struct.avw_dbase, ptr %45, i32 0, i32 0
  store i32 %44, ptr %46, align 8
  %47 = load ptr, ptr %6, align 8
  %48 = getelementptr inbounds nuw %struct.FormData_pg_database, ptr %47, i32 0, i32 1
  %49 = getelementptr inbounds nuw %struct.nameData, ptr %48, i32 0, i32 0
  %50 = getelementptr inbounds [64 x i8], ptr %49, i64 0, i64 0
  %51 = call ptr @pstrdup(ptr noundef %50)
  %52 = load ptr, ptr %7, align 8
  %53 = getelementptr inbounds nuw %struct.avw_dbase, ptr %52, i32 0, i32 1
  store ptr %51, ptr %53, align 8
  %54 = load ptr, ptr %6, align 8
  %55 = getelementptr inbounds nuw %struct.FormData_pg_database, ptr %54, i32 0, i32 9
  %56 = load i32, ptr %55, align 4
  %57 = load ptr, ptr %7, align 8
  %58 = getelementptr inbounds nuw %struct.avw_dbase, ptr %57, i32 0, i32 2
  store i32 %56, ptr %58, align 8
  %59 = load ptr, ptr %6, align 8
  %60 = getelementptr inbounds nuw %struct.FormData_pg_database, ptr %59, i32 0, i32 10
  %61 = load i32, ptr %60, align 4
  %62 = load ptr, ptr %7, align 8
  %63 = getelementptr inbounds nuw %struct.avw_dbase, ptr %62, i32 0, i32 3
  store i32 %61, ptr %63, align 4
  %64 = load ptr, ptr %7, align 8
  %65 = getelementptr inbounds nuw %struct.avw_dbase, ptr %64, i32 0, i32 4
  store ptr null, ptr %65, align 8
  %66 = load ptr, ptr %1, align 8
  %67 = load ptr, ptr %7, align 8
  %68 = call ptr @lappend(ptr noundef %66, ptr noundef %67)
  store ptr %68, ptr %1, align 8
  %69 = load ptr, ptr %8, align 8
  %70 = call ptr @MemoryContextSwitchTo(ptr noundef %69)
  store i32 0, ptr %9, align 4
  br label %71

71:                                               ; preds = %38, %37
  call void @llvm.lifetime.end.p0(i64 8, ptr %8) #14
  call void @llvm.lifetime.end.p0(i64 8, ptr %7) #14
  call void @llvm.lifetime.end.p0(i64 8, ptr %6) #14
  %72 = load i32, ptr %9, align 4
  switch i32 %72, label %80 [
    i32 0, label %73
    i32 2, label %14
  ]

73:                                               ; preds = %71
  br label %14, !llvm.loop !24

74:                                               ; preds = %14
  %75 = load ptr, ptr %3, align 8
  call void @table_endscan(ptr noundef %75)
  %76 = load ptr, ptr %2, align 8
  call void @table_close(ptr noundef %76, i32 noundef 1)
  call void @CommitTransactionCommand()
  %77 = load ptr, ptr %5, align 8
  %78 = call ptr @MemoryContextSwitchTo(ptr noundef %77)
  %79 = load ptr, ptr %1, align 8
  store i32 1, ptr %9, align 4
  call void @llvm.lifetime.end.p0(i64 8, ptr %5) #14
  call void @llvm.lifetime.end.p0(i64 8, ptr %4) #14
  call void @llvm.lifetime.end.p0(i64 8, ptr %3) #14
  call void @llvm.lifetime.end.p0(i64 8, ptr %2) #14
  call void @llvm.lifetime.end.p0(i64 8, ptr %1) #14
  ret ptr %79

80:                                               ; preds = %71
  unreachable
}