; Function Attrs: nounwind uwtable
define internal fastcc ptr @get_database_list() unnamed_addr #4 {
  %1 = load ptr, ptr @CurrentMemoryContext, align 8
  tail call void @StartTransactionCommand() #18
  %2 = tail call ptr @table_open(i32 noundef 1262, i32 noundef 1) #18
  %3 = tail call ptr @table_beginscan_catalog(ptr noundef %2, i32 noundef 0, ptr noundef null) #18
  %4 = tail call ptr @heap_getnext(ptr noundef %3, i32 noundef 1) #18
  %.not23 = icmp eq ptr %4, null
  br i1 %.not23, label %._crit_edge, label %.lr.ph

.lr.ph:                                           ; preds = %0, %32
  %5 = phi ptr [ %33, %32 ], [ %4, %0 ]
  %.024 = phi ptr [ %.1, %32 ], [ null, %0 ]
  %6 = getelementptr i8, ptr %5, i64 16
  %.val = load ptr, ptr %6, align 8
  %7 = getelementptr inbounds nuw i8, ptr %.val, i64 22
  %8 = load i8, ptr %7, align 2
  %9 = zext i8 %8 to i64
  %10 = getelementptr inbounds nuw i8, ptr %.val, i64 %9
  %11 = tail call zeroext i1 @database_is_invalid_form(ptr noundef %10) #18
  br i1 %11, label %12, label %17

12:                                               ; preds = %.lr.ph
  %13 = tail call zeroext i1 @errstart(i32 noundef 13, ptr noundef null) #18
  br i1 %13, label %14, label %32, !llvm.loop !23

14:                                               ; preds = %12
  %15 = getelementptr inbounds nuw i8, ptr %10, i64 4
  %16 = tail call i32 (ptr, ...) @errmsg_internal(ptr noundef nonnull @.str.32, ptr noundef nonnull %15) #18
  tail call void @errfinish(ptr noundef nonnull @.str.1, i32 noundef 1840, ptr noundef nonnull @__func__.get_database_list) #18
  br label %32, !llvm.loop !23

17:                                               ; preds = %.lr.ph
  %18 = load ptr, ptr @CurrentMemoryContext, align 8
  store ptr %1, ptr @CurrentMemoryContext, align 8
  %19 = tail call ptr @palloc(i64 noundef 32) #18
  %20 = load i32, ptr %10, align 4
  store i32 %20, ptr %19, align 8
  %21 = getelementptr inbounds nuw i8, ptr %10, i64 4
  %22 = tail call ptr @pstrdup(ptr noundef nonnull %21) #18
  %23 = getelementptr inbounds nuw i8, ptr %19, i64 8
  store ptr %22, ptr %23, align 8
  %24 = getelementptr inbounds nuw i8, ptr %10, i64 84
  %25 = load i32, ptr %24, align 4
  %26 = getelementptr inbounds nuw i8, ptr %19, i64 16
  store i32 %25, ptr %26, align 8
  %27 = getelementptr inbounds nuw i8, ptr %10, i64 88
  %28 = load i32, ptr %27, align 4
  %29 = getelementptr inbounds nuw i8, ptr %19, i64 20
  store i32 %28, ptr %29, align 4
  %30 = getelementptr inbounds nuw i8, ptr %19, i64 24
  store ptr null, ptr %30, align 8
  %31 = tail call ptr @lappend(ptr noundef %.024, ptr noundef nonnull %19) #18
  store ptr %18, ptr @CurrentMemoryContext, align 8
  br label %32

32:                                               ; preds = %12, %14, %17
  %.1 = phi ptr [ %31, %17 ], [ %.024, %14 ], [ %.024, %12 ]
  %33 = tail call ptr @heap_getnext(ptr noundef %3, i32 noundef 1) #18
  %.not = icmp eq ptr %33, null
  br i1 %.not, label %._crit_edge, label %.lr.ph

._crit_edge:                                      ; preds = %32, %0
  %.0.lcssa = phi ptr [ null, %0 ], [ %.1, %32 ]
  %34 = load ptr, ptr %3, align 8
  %35 = getelementptr inbounds nuw i8, ptr %34, i64 320
  %36 = load ptr, ptr %35, align 8
  %37 = getelementptr inbounds nuw i8, ptr %36, i64 24
  %38 = load ptr, ptr %37, align 8
  tail call void %38(ptr noundef nonnull %3) #18
  tail call void @table_close(ptr noundef %2, i32 noundef 1) #18
  tail call void @CommitTransactionCommand() #18
  store ptr %1, ptr @CurrentMemoryContext, align 8
  ret ptr %.0.lcssa
}